; Function Attrs: mustprogress uwtable
define hidden ptr @_ZNK10params_ref7get_symEPKcRK6symbol(ptr nocapture noundef nonnull readonly align 8 dereferenceable(8) %this, ptr noundef %k, ptr nocapture noundef nonnull readonly align 8 dereferenceable(8) %_default) local_unnamed_addr #3 align 2 {
entry:
  %0 = load ptr, ptr %this, align 8
  %tobool.not = icmp eq ptr %0, null
  br i1 %tobool.not, label %cond.false, label %cond.true

cond.true:                                        ; preds = %entry
  %call = tail call ptr @_ZNK6params7get_symEPKcRK6symbol(ptr noundef nonnull align 8 dereferenceable(12) %0, ptr noundef %k, ptr noundef nonnull align 8 dereferenceable(8) %_default)
  br label %cond.end

cond.false:                                       ; preds = %entry
  %retval.sroa.0.0.copyload = load ptr, ptr %_default, align 8
  br label %cond.end

cond.end:                                         ; preds = %cond.false, %cond.true
  %retval.sroa.0.0 = phi ptr [ %call, %cond.true ], [ %retval.sroa.0.0.copyload, %cond.false ]
  ret ptr %retval.sroa.0.0
}